(dp0
Vtarget
p1
VIceCrate('014').Dfmux(slot=8).MGMEZZ04(2,'274').SQUIDController(None).SQUIDModule(1).SQUID
p2
sVreduced_target
p3
VIceCrate(014).IceBoard(8).Mezz(2).SQCB.SQUIDModule(1).SQUID
p4
sVtitle
p5
VSquid Tuning for IceCrate('014').Dfmux(slot=8).MGMEZZ04(2,'274').SQUIDController(None).SQUIDModule(1).SQUID
p6
sVsquid_id
p7
VCorrect.5
p8
sVsquid_pstring
p9
V014/8/2/1
p10
sVhwm_dir
p11
V/home/polarbear/hardware_maps/polarbear/PB2b/commissioning/202305_crate_test/crate_hwm_202310_shift_disable_bad_sq.yaml
p12
sVhwm_name
p13
VPB2 HWM
p14
sVoutcome
p15
Vfailure
p16
sVfailure_reason
p17
cpydfmux.core.utils.dfmux_exceptions
DFMUXError
p18
(VOriginal Error: ERROR: No zero present between Offset DAC brackets [0.0,4.5].  Explanation: Could not zero the ADC output using the offset_zero algorithm before beginning.  You may have an unplugged cable, or short, or some offset present that puts the zero point outside the offset DAC at the default SQUID Controller DAC values (0.2 V Current bias, 2.5 V flux bias)
p19
tp20
Rp21
(dp22
Vmessage
p23
g19
sVdata
p24
NsbsVstack_trace
p25
VTraceback (most recent call last):\u000a  File "/home/polarbear/pydfmux/algorithms/squid/tune_squid.py", line 370, in tune_squid_inner\u000a    voff = yield pydfmux.asynchronously(offset_zero)\u000a  File "/home/polarbear/clustertools/py3-v2/LinuxMint_17.2_x86_64/lib/python3.6/site-packages/tornado/gen.py", line 1055, in run\u000a    value = future.result()\u000a  File "/home/polarbear/clustertools/py3-v2/LinuxMint_17.2_x86_64/lib/python3.6/site-packages/tornado/concurrent.py", line 238, in result\u000a    raise_exc_info(self._exc_info)\u000a  File "<string>", line 4, in raise_exc_info\u000a  File "/home/polarbear/clustertools/py3-v2/LinuxMint_17.2_x86_64/lib/python3.6/site-packages/tornado/gen.py", line 1069, in run\u000a    yielded = self.gen.send(value)\u000a  File "/home/polarbear/clustertools/py3-v2/LinuxMint_17.2_x86_64/lib/python3.6/types.py", line 182, in send\u000a    return self.__wrapped.send(val)\u000a  File "/home/polarbear/pydfmux/algorithms/squid/offset_zero.py", line 232, in take_offset_zero\u000a    .format(offset_lowerlim, offset_upperlim)\u000apydfmux.core.utils.dfmux_exceptions.DFMUXError: ERROR: No zero present between Offset DAC brackets [0.0,4.5]\u000a\u000aDuring handling of the above exception, another exception occurred:\u000a\u000aTraceback (most recent call last):\u000a  File "/home/polarbear/pydfmux/algorithms/squid/tune_squid.py", line 378, in tune_squid_inner\u000a    'bias)'.format(e)\u000apydfmux.core.utils.dfmux_exceptions.DFMUXError: Original Error: ERROR: No zero present between Offset DAC brackets [0.0,4.5].  Explanation: Could not zero the ADC output using the offset_zero algorithm before beginning.  You may have an unplugged cable, or short, or some offset present that puts the zero point outside the offset DAC at the default SQUID Controller DAC values (0.2 V Current bias, 2.5 V flux bias)\u000a
p26
sVchosen_parameters
p27
(dp28
Vflux_bias
p29
NsVcurrent_bias
p30
NsVpeak2peak
p31
Nss.